; ModuleID = '49/1120.c'
source_filename = "49/1120.c"
target datalayout = "e-m:e-p270:32:32-p271:32:32-p272:64:64-i64:64-f80:128-n8:16:32:64-S128"
target triple = "x86_64-pc-linux-gnu"

@.str = private unnamed_addr constant [3 x i8] c"%s\00", align 1
@.str.1 = private unnamed_addr constant [4 x i8] c"%s\0A\00", align 1

; Function Attrs: noinline nounwind uwtable
define dso_local i32 @main() #0 {
  %1 = alloca i32, align 4
  %2 = alloca [500 x i8], align 16
  %3 = alloca [500 x i8], align 16
  %4 = alloca i32, align 4
  %5 = alloca i32, align 4
  %6 = alloca i32, align 4
  %7 = alloca i32, align 4
  %8 = alloca i32, align 4
  %9 = alloca i32, align 4
  store i32 0, i32* %1, align 4
  %10 = bitcast [500 x i8]* %2 to i8*
  call void @llvm.memset.p0i8.i64(i8* align 16 %10, i8 0, i64 500, i1 false)
  %11 = bitcast [500 x i8]* %3 to i8*
  call void @llvm.memset.p0i8.i64(i8* align 16 %11, i8 0, i64 500, i1 false)
  %12 = getelementptr inbounds [500 x i8], [500 x i8]* %2, i64 0, i64 0
  %13 = call i32 (i8*, ...) @__isoc99_scanf(i8* getelementptr inbounds ([3 x i8], [3 x i8]* @.str, i64 0, i64 0), i8* %12)
  %14 = getelementptr inbounds [500 x i8], [500 x i8]* %2, i64 0, i64 0
  %15 = call i64 @strlen(i8* %14) #4
  %16 = trunc i64 %15 to i32
  store i32 %16, i32* %8, align 4
  store i32 1, i32* %4, align 4
  br label %17

17:                                               ; preds = %105, %0
  %18 = load i32, i32* %4, align 4
  %19 = load i32, i32* %8, align 4
  %20 = icmp sle i32 %18, %19
  br i1 %20, label %21, label %108

21:                                               ; preds = %17
  store i32 0, i32* %5, align 4
  br label %22

22:                                               ; preds = %101, %21
  %23 = load i32, i32* %5, align 4
  %24 = load i32, i32* %8, align 4
  %25 = load i32, i32* %4, align 4
  %26 = sub nsw i32 %24, %25
  %27 = icmp sle i32 %23, %26
  br i1 %27, label %28, label %104

28:                                               ; preds = %22
  store i32 -1, i32* %9, align 4
  store i32 0, i32* %7, align 4
  br label %29

29:                                               ; preds = %36, %28
  %30 = load i32, i32* %7, align 4
  %31 = icmp slt i32 %30, 500
  br i1 %31, label %32, label %39

32:                                               ; preds = %29
  %33 = load i32, i32* %7, align 4
  %34 = sext i32 %33 to i64
  %35 = getelementptr inbounds [500 x i8], [500 x i8]* %3, i64 0, i64 %34
  store i8 0, i8* %35, align 1
  br label %36

36:                                               ; preds = %32
  %37 = load i32, i32* %7, align 4
  %38 = add nsw i32 %37, 1
  store i32 %38, i32* %7, align 4
  br label %29

39:                                               ; preds = %29
  %40 = load i32, i32* %5, align 4
  store i32 %40, i32* %7, align 4
  br label %41

41:                                               ; preds = %57, %39
  %42 = load i32, i32* %7, align 4
  %43 = load i32, i32* %4, align 4
  %44 = load i32, i32* %5, align 4
  %45 = add nsw i32 %43, %44
  %46 = icmp slt i32 %42, %45
  br i1 %46, label %47, label %60

47:                                               ; preds = %41
  %48 = load i32, i32* %9, align 4
  %49 = add nsw i32 %48, 1
  store i32 %49, i32* %9, align 4
  %50 = load i32, i32* %7, align 4
  %51 = sext i32 %50 to i64
  %52 = getelementptr inbounds [500 x i8], [500 x i8]* %2, i64 0, i64 %51
  %53 = load i8, i8* %52, align 1
  %54 = load i32, i32* %9, align 4
  %55 = sext i32 %54 to i64
  %56 = getelementptr inbounds [500 x i8], [500 x i8]* %3, i64 0, i64 %55
  store i8 %53, i8* %56, align 1
  br label %57

57:                                               ; preds = %47
  %58 = load i32, i32* %7, align 4
  %59 = add nsw i32 %58, 1
  store i32 %59, i32* %7, align 4
  br label %41

60:                                               ; preds = %41
  store i32 0, i32* %6, align 4
  store i32 0, i32* %7, align 4
  br label %61

61:                                               ; preds = %85, %60
  %62 = load i32, i32* %7, align 4
  %63 = load i32, i32* %9, align 4
  %64 = add nsw i32 %63, 1
  %65 = icmp slt i32 %62, %64
  br i1 %65, label %66, label %88

66:                                               ; preds = %61
  %67 = load i32, i32* %7, align 4
  %68 = sext i32 %67 to i64
  %69 = getelementptr inbounds [500 x i8], [500 x i8]* %3, i64 0, i64 %68
  %70 = load i8, i8* %69, align 1
  %71 = sext i8 %70 to i32
  %72 = load i32, i32* %9, align 4
  %73 = load i32, i32* %7, align 4
  %74 = sub nsw i32 %72, %73
  %75 = sext i32 %74 to i64
  %76 = getelementptr inbounds [500 x i8], [500 x i8]* %3, i64 0, i64 %75
  %77 = load i8, i8* %76, align 1
  %78 = sext i8 %77 to i32
  %79 = icmp ne i32 %71, %78
  br i1 %79, label %80, label %81

80:                                               ; preds = %66
  br label %88

81:                                               ; preds = %66
  %82 = load i32, i32* %6, align 4
  %83 = add nsw i32 %82, 1
  store i32 %83, i32* %6, align 4
  br label %84

84:                                               ; preds = %81
  br label %85

85:                                               ; preds = %84
  %86 = load i32, i32* %7, align 4
  %87 = add nsw i32 %86, 1
  store i32 %87, i32* %7, align 4
  br label %61

88:                                               ; preds = %80, %61
  %89 = load i32, i32* %6, align 4
  %90 = load i32, i32* %9, align 4
  %91 = add nsw i32 %90, 1
  %92 = icmp eq i32 %89, %91
  br i1 %92, label %93, label %100

93:                                               ; preds = %88
  %94 = getelementptr inbounds [500 x i8], [500 x i8]* %3, i64 0, i64 0
  %95 = call i64 @strlen(i8* %94) #4
  %96 = icmp ne i64 %95, 1
  br i1 %96, label %97, label %100

97:                                               ; preds = %93
  %98 = getelementptr inbounds [500 x i8], [500 x i8]* %3, i64 0, i64 0
  %99 = call i32 (i8*, ...) @printf(i8* getelementptr inbounds ([4 x i8], [4 x i8]* @.str.1, i64 0, i64 0), i8* %98)
  br label %100

100:                                              ; preds = %97, %93, %88
  br label %101

101:                                              ; preds = %100
  %102 = load i32, i32* %5, align 4
  %103 = add nsw i32 %102, 1
  store i32 %103, i32* %5, align 4
  br label %22

104:                                              ; preds = %22
  br label %105

105:                                              ; preds = %104
  %106 = load i32, i32* %4, align 4
  %107 = add nsw i32 %106, 1
  store i32 %107, i32* %4, align 4
  br label %17

108:                                              ; preds = %17
  ret i32 0
}

; Function Attrs: argmemonly nounwind willreturn
declare void @llvm.memset.p0i8.i64(i8* nocapture writeonly, i8, i64, i1 immarg) #1

declare dso_local i32 @__isoc99_scanf(i8*, ...) #2

; Function Attrs: nounwind readonly
declare dso_local i64 @strlen(i8*) #3

declare dso_local i32 @printf(i8*, ...) #2


!llvm.module.flags = !{!0}
!llvm.ident = !{!1}

!0 = !{i32 1, !"wchar_size", i32 4}
!1 = !{!"clang version 10.0.0-4ubuntu1 "}
